target datalayout = "e-m:e-p270:32:32-p271:32:32-p272:64:64-i64:64-i128:128-f80:128-n8:16:32:64-S128"
target triple = "x86_64-unknown-linux-gnu"

%"class.pugi::xml_node" = type { ptr }
%"class.Assimp::IRRImporter" = type <{ %"class.Assimp::BaseImporter", %"class.Assimp::IrrlichtBase", double, i8, [7 x i8], %"class.std::vector.8", %"class.std::vector.13", i32, i32, i32, [4 x i8] }>
%"class.Assimp::BaseImporter" = type { ptr, double, double, %"class.std::__cxx11::basic_string", %"class.std::__exception_ptr::exception_ptr", ptr }
%"class.std::__cxx11::basic_string" = type { %"struct.std::__cxx11::basic_string<char>::_Alloc_hider", i64, %union.anon }
%"struct.std::__cxx11::basic_string<char>::_Alloc_hider" = type { ptr }
%union.anon = type { i64, [8 x i8] }
%"class.std::__exception_ptr::exception_ptr" = type { ptr }
%"class.Assimp::IrrlichtBase" = type { %"class.Assimp::TXmlParser" }
%"class.Assimp::TXmlParser" = type { ptr, %"class.pugi::xml_node", %"class.std::vector.6" }
%"class.std::vector.6" = type { %"struct.std::_Vector_base.7" }
%"struct.std::_Vector_base.7" = type { %"struct.std::_Vector_base<char, std::allocator<char>>::_Vector_impl" }
%"struct.std::_Vector_base<char, std::allocator<char>>::_Vector_impl" = type { %"struct.std::_Vector_base<char, std::allocator<char>>::_Vector_impl_data" }
%"struct.std::_Vector_base<char, std::allocator<char>>::_Vector_impl_data" = type { ptr, ptr, ptr }
%"class.std::vector.8" = type { %"struct.std::_Vector_base.9" }
%"struct.std::_Vector_base.9" = type { %"struct.std::_Vector_base<aiCamera *, std::allocator<aiCamera *>>::_Vector_impl" }
%"struct.std::_Vector_base<aiCamera *, std::allocator<aiCamera *>>::_Vector_impl" = type { %"struct.std::_Vector_base<aiCamera *, std::allocator<aiCamera *>>::_Vector_impl_data" }
%"struct.std::_Vector_base<aiCamera *, std::allocator<aiCamera *>>::_Vector_impl_data" = type { ptr, ptr, ptr }
%"class.std::vector.13" = type { %"struct.std::_Vector_base.14" }
%"struct.std::_Vector_base.14" = type { %"struct.std::_Vector_base<aiLight *, std::allocator<aiLight *>>::_Vector_impl" }
%"struct.std::_Vector_base<aiLight *, std::allocator<aiLight *>>::_Vector_impl" = type { %"struct.std::_Vector_base<aiLight *, std::allocator<aiLight *>>::_Vector_impl_data" }
%"struct.std::_Vector_base<aiLight *, std::allocator<aiLight *>>::_Vector_impl_data" = type { ptr, ptr, ptr }

@.str.1 = private unnamed_addr constant [20 x i8] c"IMPORT_IRR_ANIM_FPS\00", align 1
@.str.2 = private unnamed_addr constant [31 x i8] c"IRR: Invalid FPS configuration\00", align 1
@.str.3 = private unnamed_addr constant [13 x i8] c"FAVOUR_SPEED\00", align 1

; Function Attrs: mustprogress uwtable
define hidden void @_ZN6Assimp11IRRImporter15SetupPropertiesEPKNS_8ImporterE(ptr noundef nonnull align 8 dereferenceable(188) %this, ptr noundef %pImp) unnamed_addr #2 align 2 {
entry:
  %this.addr = alloca ptr, align 8
  %pImp.addr = alloca ptr, align 8
  store ptr %this, ptr %this.addr, align 8
  store ptr %pImp, ptr %pImp.addr, align 8
  %this1 = load ptr, ptr %this.addr, align 8
  %0 = load ptr, ptr %pImp.addr, align 8
  %call = call noundef i32 @_ZNK6Assimp8Importer18GetPropertyIntegerEPKci(ptr noundef nonnull align 8 dereferenceable(8) %0, ptr noundef @.str.1, i32 noundef 100)
  %conv = sitofp i32 %call to double
  %fps = getelementptr inbounds %"class.Assimp::IRRImporter", ptr %this1, i32 0, i32 2
  store double %conv, ptr %fps, align 8
  %fps2 = getelementptr inbounds %"class.Assimp::IRRImporter", ptr %this1, i32 0, i32 2
  %1 = load double, ptr %fps2, align 8
  %cmp = fcmp olt double %1, 1.000000e+01
  br i1 %cmp, label %if.then, label %if.end

if.then:                                          ; preds = %entry
  %call3 = call noundef ptr @_ZN6Assimp13DefaultLogger3getEv()
  call void @_ZN6Assimp6Logger5errorEPKc(ptr noundef nonnull align 8 dereferenceable(12) %call3, ptr noundef @.str.2)
  %fps4 = getelementptr inbounds %"class.Assimp::IRRImporter", ptr %this1, i32 0, i32 2
  store double 1.000000e+02, ptr %fps4, align 8
  br label %if.end

if.end:                                           ; preds = %if.then, %entry
  %2 = load ptr, ptr %pImp.addr, align 8
  %call5 = call noundef i32 @_ZNK6Assimp8Importer18GetPropertyIntegerEPKci(ptr noundef nonnull align 8 dereferenceable(8) %2, ptr noundef @.str.3, i32 noundef 0)
  %cmp6 = icmp ne i32 0, %call5
  %configSpeedFlag = getelementptr inbounds %"class.Assimp::IRRImporter", ptr %this1, i32 0, i32 3
  %frombool = zext i1 %cmp6 to i8
  store i8 %frombool, ptr %configSpeedFlag, align 8
  ret void
}