; Function Attrs: mustprogress uwtable
define hidden void @_ZN6Assimp11IRRImporter15SetupPropertiesEPKNS_8ImporterE(ptr nocapture noundef nonnull writeonly align 8 dereferenceable(188) %this, ptr noundef nonnull %pImp) unnamed_addr #4 align 2 {
entry:
  %call = tail call noundef i32 @_ZNK6Assimp8Importer18GetPropertyIntegerEPKci(ptr noundef nonnull align 8 dereferenceable(8) %pImp, ptr noundef nonnull @.str.1, i32 noundef 100)
  %conv = sitofp i32 %call to double
  %fps = getelementptr inbounds i8, ptr %this, i64 112
  store double %conv, ptr %fps, align 8
  %cmp = icmp slt i32 %call, 10
  br i1 %cmp, label %if.then, label %if.end

if.then:                                          ; preds = %entry
  %call3 = tail call noundef ptr @_ZN6Assimp13DefaultLogger3getEv()
  tail call void @_ZN6Assimp6Logger5errorEPKc(ptr noundef nonnull align 8 dereferenceable(12) %call3, ptr noundef nonnull @.str.2)
  store double 1.000000e+02, ptr %fps, align 8
  br label %if.end

if.end:                                           ; preds = %if.then, %entry
  %call5 = tail call noundef i32 @_ZNK6Assimp8Importer18GetPropertyIntegerEPKci(ptr noundef nonnull align 8 dereferenceable(8) %pImp, ptr noundef nonnull @.str.3, i32 noundef 0)
  %cmp6 = icmp ne i32 %call5, 0
  %configSpeedFlag = getelementptr inbounds i8, ptr %this, i64 120
  %frombool = zext i1 %cmp6 to i8
  store i8 %frombool, ptr %configSpeedFlag, align 8
  ret void
}